; Function Attrs: mustprogress uwtable
define noundef nonnull align 8 dereferenceable(8) ptr @_ZlsRSoRKN12colvarmodule10quaternionE(ptr noundef nonnull returned align 8 dereferenceable(8) %0, ptr noundef nonnull readonly align 8 captures(none) dereferenceable(32) %1) local_unnamed_addr #0 {
  %3 = load ptr, ptr %0, align 8, !tbaa !4
  %4 = getelementptr i8, ptr %3, i64 -24
  %5 = load i64, ptr %4, align 8
  %6 = getelementptr inbounds i8, ptr %0, i64 %5
  %7 = getelementptr inbounds nuw i8, ptr %6, i64 16
  %8 = load i64, ptr %7, align 8, !tbaa !48
  %9 = getelementptr inbounds nuw i8, ptr %6, i64 8
  %10 = load i64, ptr %9, align 8, !tbaa !22
  store i64 2, ptr %7, align 8, !tbaa !48
  %11 = tail call noundef nonnull align 8 dereferenceable(8) ptr @_ZSt16__ostream_insertIcSt11char_traitsIcEERSt13basic_ostreamIT_T0_ES6_PKS3_l(ptr noundef nonnull align 8 dereferenceable(8) %0, ptr noundef nonnull @.str.4, i64 noundef 2)
  %12 = load ptr, ptr %0, align 8, !tbaa !4
  %13 = getelementptr i8, ptr %12, i64 -24
  %14 = load i64, ptr %13, align 8
  %15 = getelementptr inbounds i8, ptr %0, i64 %14
  %16 = getelementptr inbounds nuw i8, ptr %15, i64 16
  store i64 %8, ptr %16, align 8, !tbaa !48
  %17 = load i64, ptr %13, align 8
  %18 = getelementptr inbounds i8, ptr %0, i64 %17
  %19 = getelementptr inbounds nuw i8, ptr %18, i64 8
  store i64 %10, ptr %19, align 8, !tbaa !22
  %20 = load double, ptr %1, align 8, !tbaa !49
  %21 = tail call noundef nonnull align 8 dereferenceable(8) ptr @_ZNSo9_M_insertIdEERSoT_(ptr noundef nonnull align 8 dereferenceable(8) %0, double noundef %20)
  %22 = tail call noundef nonnull align 8 dereferenceable(8) ptr @_ZSt16__ostream_insertIcSt11char_traitsIcEERSt13basic_ostreamIT_T0_ES6_PKS3_l(ptr noundef nonnull align 8 dereferenceable(8) %21, ptr noundef nonnull @.str.5, i64 noundef 3)
  %23 = load ptr, ptr %0, align 8, !tbaa !4
  %24 = getelementptr i8, ptr %23, i64 -24
  %25 = load i64, ptr %24, align 8
  %26 = getelementptr inbounds i8, ptr %0, i64 %25
  %27 = getelementptr inbounds nuw i8, ptr %26, i64 16
  store i64 %8, ptr %27, align 8, !tbaa !48
  %28 = load i64, ptr %24, align 8
  %29 = getelementptr inbounds i8, ptr %0, i64 %28
  %30 = getelementptr inbounds nuw i8, ptr %29, i64 8
  store i64 %10, ptr %30, align 8, !tbaa !22
  %31 = getelementptr inbounds nuw i8, ptr %1, i64 8
  %32 = load double, ptr %31, align 8, !tbaa !51
  %33 = tail call noundef nonnull align 8 dereferenceable(8) ptr @_ZNSo9_M_insertIdEERSoT_(ptr noundef nonnull align 8 dereferenceable(8) %0, double noundef %32)
  %34 = tail call noundef nonnull align 8 dereferenceable(8) ptr @_ZSt16__ostream_insertIcSt11char_traitsIcEERSt13basic_ostreamIT_T0_ES6_PKS3_l(ptr noundef nonnull align 8 dereferenceable(8) %33, ptr noundef nonnull @.str.5, i64 noundef 3)
  %35 = load ptr, ptr %0, align 8, !tbaa !4
  %36 = getelementptr i8, ptr %35, i64 -24
  %37 = load i64, ptr %36, align 8
  %38 = getelementptr inbounds i8, ptr %0, i64 %37
  %39 = getelementptr inbounds nuw i8, ptr %38, i64 16
  store i64 %8, ptr %39, align 8, !tbaa !48
  %40 = load i64, ptr %36, align 8
  %41 = getelementptr inbounds i8, ptr %0, i64 %40
  %42 = getelementptr inbounds nuw i8, ptr %41, i64 8
  store i64 %10, ptr %42, align 8, !tbaa !22
  %43 = getelementptr inbounds nuw i8, ptr %1, i64 16
  %44 = load double, ptr %43, align 8, !tbaa !52
  %45 = tail call noundef nonnull align 8 dereferenceable(8) ptr @_ZNSo9_M_insertIdEERSoT_(ptr noundef nonnull align 8 dereferenceable(8) %0, double noundef %44)
  %46 = tail call noundef nonnull align 8 dereferenceable(8) ptr @_ZSt16__ostream_insertIcSt11char_traitsIcEERSt13basic_ostreamIT_T0_ES6_PKS3_l(ptr noundef nonnull align 8 dereferenceable(8) %45, ptr noundef nonnull @.str.5, i64 noundef 3)
  %47 = load ptr, ptr %0, align 8, !tbaa !4
  %48 = getelementptr i8, ptr %47, i64 -24
  %49 = load i64, ptr %48, align 8
  %50 = getelementptr inbounds i8, ptr %0, i64 %49
  %51 = getelementptr inbounds nuw i8, ptr %50, i64 16
  store i64 %8, ptr %51, align 8, !tbaa !48
  %52 = load i64, ptr %48, align 8
  %53 = getelementptr inbounds i8, ptr %0, i64 %52
  %54 = getelementptr inbounds nuw i8, ptr %53, i64 8
  store i64 %10, ptr %54, align 8, !tbaa !22
  %55 = getelementptr inbounds nuw i8, ptr %1, i64 24
  %56 = load double, ptr %55, align 8, !tbaa !53
  %57 = tail call noundef nonnull align 8 dereferenceable(8) ptr @_ZNSo9_M_insertIdEERSoT_(ptr noundef nonnull align 8 dereferenceable(8) %0, double noundef %56)
  %58 = tail call noundef nonnull align 8 dereferenceable(8) ptr @_ZSt16__ostream_insertIcSt11char_traitsIcEERSt13basic_ostreamIT_T0_ES6_PKS3_l(ptr noundef nonnull align 8 dereferenceable(8) %57, ptr noundef nonnull @.str.6, i64 noundef 2)
  ret ptr %0
}